; ModuleID = '7/881.c'
source_filename = "7/881.c"
target datalayout = "e-m:e-p270:32:32-p271:32:32-p272:64:64-i64:64-f80:128-n8:16:32:64-S128"
target triple = "x86_64-pc-linux-gnu"

; Function Attrs: noinline nounwind uwtable
define dso_local i32 @bd(i8* %0, i8* %1, i32 %2) #0 {
  %4 = alloca i8*, align 8
  %5 = alloca i8*, align 8
  %6 = alloca i32, align 4
  %7 = alloca i32, align 4
  %8 = alloca i32, align 4
  %9 = alloca i8*, align 8
  %10 = alloca i8*, align 8
  store i8* %0, i8** %4, align 8
  store i8* %1, i8** %5, align 8
  store i32 %2, i32* %6, align 4
  store i32 0, i32* %7, align 4
  %11 = load i8*, i8** %4, align 8
  store i8* %11, i8** %9, align 8
  %12 = load i8*, i8** %5, align 8
  store i8* %12, i8** %10, align 8
  store i32 0, i32* %8, align 4
  br label %13

13:                                               ; preds = %28, %3
  %14 = load i32, i32* %8, align 4
  %15 = load i32, i32* %6, align 4
  %16 = icmp slt i32 %14, %15
  br i1 %16, label %17, label %35

17:                                               ; preds = %13
  %18 = load i8*, i8** %9, align 8
  %19 = load i8, i8* %18, align 1
  %20 = sext i8 %19 to i32
  %21 = load i8*, i8** %10, align 8
  %22 = load i8, i8* %21, align 1
  %23 = sext i8 %22 to i32
  %24 = icmp eq i32 %20, %23
  br i1 %24, label %25, label %26

25:                                               ; preds = %17
  store i32 1, i32* %7, align 4
  br label %27

26:                                               ; preds = %17
  store i32 0, i32* %7, align 4
  br label %35

27:                                               ; preds = %25
  br label %28

28:                                               ; preds = %27
  %29 = load i8*, i8** %9, align 8
  %30 = getelementptr inbounds i8, i8* %29, i32 1
  store i8* %30, i8** %9, align 8
  %31 = load i8*, i8** %10, align 8
  %32 = getelementptr inbounds i8, i8* %31, i32 1
  store i8* %32, i8** %10, align 8
  %33 = load i32, i32* %8, align 4
  %34 = add nsw i32 %33, 1
  store i32 %34, i32* %8, align 4
  br label %13

35:                                               ; preds = %26, %13
  %36 = load i32, i32* %7, align 4
  ret i32 %36
}

; Function Attrs: noinline nounwind uwtable
define dso_local void @main() #0 {
  %1 = alloca i8*, align 8
  %2 = alloca i8*, align 8
  %3 = alloca i8*, align 8
  %4 = alloca i8*, align 8
  %5 = alloca i8*, align 8
  %6 = alloca i32, align 4
  %7 = alloca i32, align 4
  %8 = alloca i32, align 4
  %9 = alloca i32, align 4
  %10 = call noalias i8* @malloc(i64 260) #3
  store i8* %10, i8** %1, align 8
  %11 = call noalias i8* @malloc(i64 260) #3
  store i8* %11, i8** %2, align 8
  %12 = call noalias i8* @malloc(i64 260) #3
  store i8* %12, i8** %3, align 8
  %13 = call noalias i8* @malloc(i64 260) #3
  store i8* %13, i8** %4, align 8
  %14 = load i8*, i8** %1, align 8
  %15 = call i32 (i8*, ...) bitcast (i32 (...)* @gets to i32 (i8*, ...)*)(i8* %14)
  %16 = load i8*, i8** %2, align 8
  %17 = call i32 (i8*, ...) bitcast (i32 (...)* @gets to i32 (i8*, ...)*)(i8* %16)
  %18 = load i8*, i8** %3, align 8
  %19 = call i32 (i8*, ...) bitcast (i32 (...)* @gets to i32 (i8*, ...)*)(i8* %18)
  store i32 0, i32* %8, align 4
  %20 = load i8*, i8** %1, align 8
  store i8* %20, i8** %5, align 8
  store i32 0, i32* %6, align 4
  br label %21

21:                                               ; preds = %27, %0
  %22 = load i8*, i8** %5, align 8
  %23 = load i8, i8* %22, align 1
  %24 = sext i8 %23 to i32
  %25 = icmp ne i32 %24, 0
  br i1 %25, label %26, label %32

26:                                               ; preds = %21
  br label %27

27:                                               ; preds = %26
  %28 = load i8*, i8** %5, align 8
  %29 = getelementptr inbounds i8, i8* %28, i32 1
  store i8* %29, i8** %5, align 8
  %30 = load i32, i32* %6, align 4
  %31 = add nsw i32 %30, 1
  store i32 %31, i32* %6, align 4
  br label %21

32:                                               ; preds = %21
  %33 = load i8*, i8** %2, align 8
  store i8* %33, i8** %5, align 8
  store i32 0, i32* %7, align 4
  br label %34

34:                                               ; preds = %42, %32
  %35 = load i8*, i8** %5, align 8
  %36 = load i8, i8* %35, align 1
  %37 = sext i8 %36 to i32
  %38 = icmp ne i32 %37, 0
  br i1 %38, label %39, label %45

39:                                               ; preds = %34
  %40 = load i32, i32* %7, align 4
  %41 = add nsw i32 %40, 1
  store i32 %41, i32* %7, align 4
  br label %42

42:                                               ; preds = %39
  %43 = load i8*, i8** %5, align 8
  %44 = getelementptr inbounds i8, i8* %43, i32 1
  store i8* %44, i8** %5, align 8
  br label %34

45:                                               ; preds = %34
  %46 = load i8*, i8** %3, align 8
  store i8* %46, i8** %5, align 8
  store i32 0, i32* %9, align 4
  br label %47

47:                                               ; preds = %55, %45
  %48 = load i8*, i8** %5, align 8
  %49 = load i8, i8* %48, align 1
  %50 = sext i8 %49 to i32
  %51 = icmp ne i32 %50, 0
  br i1 %51, label %52, label %58

52:                                               ; preds = %47
  %53 = load i32, i32* %9, align 4
  %54 = add nsw i32 %53, 1
  store i32 %54, i32* %9, align 4
  br label %55

55:                                               ; preds = %52
  %56 = load i8*, i8** %5, align 8
  %57 = getelementptr inbounds i8, i8* %56, i32 1
  store i8* %57, i8** %5, align 8
  br label %47

58:                                               ; preds = %47
  %59 = load i8*, i8** %1, align 8
  store i8* %59, i8** %5, align 8
  br label %60

60:                                               ; preds = %80, %58
  %61 = load i8*, i8** %5, align 8
  %62 = load i8*, i8** %1, align 8
  %63 = load i32, i32* %6, align 4
  %64 = sext i32 %63 to i64
  %65 = getelementptr inbounds i8, i8* %62, i64 %64
  %66 = load i32, i32* %7, align 4
  %67 = sext i32 %66 to i64
  %68 = sub i64 0, %67
  %69 = getelementptr inbounds i8, i8* %65, i64 %68
  %70 = getelementptr inbounds i8, i8* %69, i64 1
  %71 = icmp ult i8* %61, %70
  br i1 %71, label %72, label %83

72:                                               ; preds = %60
  %73 = load i8*, i8** %5, align 8
  %74 = load i8*, i8** %2, align 8
  %75 = load i32, i32* %7, align 4
  %76 = call i32 @bd(i8* %73, i8* %74, i32 %75)
  %77 = icmp eq i32 %76, 1
  br i1 %77, label %78, label %79

78:                                               ; preds = %72
  store i32 1, i32* %8, align 4
  br label %83

79:                                               ; preds = %72
  br label %80

80:                                               ; preds = %79
  %81 = load i8*, i8** %5, align 8
  %82 = getelementptr inbounds i8, i8* %81, i32 1
  store i8* %82, i8** %5, align 8
  br label %60

83:                                               ; preds = %78, %60
  %84 = load i32, i32* %8, align 4
  %85 = icmp eq i32 %84, 1
  br i1 %85, label %86, label %102

86:                                               ; preds = %83
  %87 = load i8*, i8** %4, align 8
  %88 = load i8*, i8** %5, align 8
  %89 = load i32, i32* %7, align 4
  %90 = sext i32 %89 to i64
  %91 = getelementptr inbounds i8, i8* %88, i64 %90
  %92 = call i8* @strcpy(i8* %87, i8* %91) #3
  %93 = load i8*, i8** %5, align 8
  %94 = load i8*, i8** %3, align 8
  %95 = call i8* @strcpy(i8* %93, i8* %94) #3
  %96 = load i8*, i8** %5, align 8
  %97 = load i32, i32* %9, align 4
  %98 = sext i32 %97 to i64
  %99 = getelementptr inbounds i8, i8* %96, i64 %98
  %100 = load i8*, i8** %4, align 8
  %101 = call i8* @strcpy(i8* %99, i8* %100) #3
  br label %102

102:                                              ; preds = %86, %83
  %103 = load i8*, i8** %1, align 8
  %104 = call i32 @puts(i8* %103)
  ret void
}

; Function Attrs: nounwind
declare dso_local noalias i8* @malloc(i64) #1

declare dso_local i32 @gets(...) #2

; Function Attrs: nounwind
declare dso_local i8* @strcpy(i8*, i8*) #1

declare dso_local i32 @puts(i8*) #2


!llvm.module.flags = !{!0}
!llvm.ident = !{!1}

!0 = !{i32 1, !"wchar_size", i32 4}
!1 = !{!"clang version 10.0.0-4ubuntu1 "}
